target datalayout = "e-m:e-p270:32:32-p271:32:32-p272:64:64-i64:64-f80:128-n8:16:32:64-S128"
target triple = "x86_64-pc-linux-gnu"

%struct.anon = type { i32, [27 x i8] }

@.str = private unnamed_addr constant [3 x i8] c"%d\00", align 1
@.str.1 = private unnamed_addr constant [6 x i8] c"%d %s\00", align 1
@book = common dso_local global [1000 x %struct.anon] zeroinitializer, align 16
@.str.2 = private unnamed_addr constant [7 x i8] c"%c\0A%d\0A\00", align 1
@.str.3 = private unnamed_addr constant [4 x i8] c"%d\0A\00", align 1

; Function Attrs: noinline nounwind uwtable
define dso_local void @main() #0 {
  %1 = alloca i32, align 4
  %2 = alloca i32, align 4
  %3 = alloca i32, align 4
  %4 = alloca i32, align 4
  %5 = alloca [26 x i32], align 16
  store i32 0, i32* %4, align 4
  %6 = bitcast [26 x i32]* %5 to i8*
  call void @llvm.memset.p0i8.i64(i8* align 16 %6, i8 0, i64 104, i1 false)
  %7 = call i32 (i8*, ...) @__isoc99_scanf(i8* getelementptr inbounds ([3 x i8], [3 x i8]* @.str, i64 0, i64 0), i32* %1)
  store i32 0, i32* %2, align 4
  br label %8

8:                                                ; preds = %23, %0
  %9 = load i32, i32* %2, align 4
  %10 = load i32, i32* %1, align 4
  %11 = icmp slt i32 %9, %10
  br i1 %11, label %12, label %26

12:                                               ; preds = %8
  %13 = load i32, i32* %2, align 4
  %14 = sext i32 %13 to i64
  %15 = getelementptr inbounds [1000 x %struct.anon], [1000 x %struct.anon]* @book, i64 0, i64 %14
  %16 = getelementptr inbounds %struct.anon, %struct.anon* %15, i32 0, i32 0
  %17 = load i32, i32* %2, align 4
  %18 = sext i32 %17 to i64
  %19 = getelementptr inbounds [1000 x %struct.anon], [1000 x %struct.anon]* @book, i64 0, i64 %18
  %20 = getelementptr inbounds %struct.anon, %struct.anon* %19, i32 0, i32 1
  %21 = getelementptr inbounds [27 x i8], [27 x i8]* %20, i64 0, i64 0
  %22 = call i32 (i8*, ...) @__isoc99_scanf(i8* getelementptr inbounds ([6 x i8], [6 x i8]* @.str.1, i64 0, i64 0), i32* %16, i8* %21)
  br label %23

23:                                               ; preds = %12
  %24 = load i32, i32* %2, align 4
  %25 = add nsw i32 %24, 1
  store i32 %25, i32* %2, align 4
  br label %8

26:                                               ; preds = %8
  store i32 0, i32* %2, align 4
  br label %27

27:                                               ; preds = %62, %26
  %28 = load i32, i32* %2, align 4
  %29 = load i32, i32* %1, align 4
  %30 = icmp slt i32 %28, %29
  br i1 %30, label %31, label %65

31:                                               ; preds = %27
  store i32 0, i32* %3, align 4
  br label %32

32:                                               ; preds = %58, %31
  %33 = load i32, i32* %2, align 4
  %34 = sext i32 %33 to i64
  %35 = getelementptr inbounds [1000 x %struct.anon], [1000 x %struct.anon]* @book, i64 0, i64 %34
  %36 = getelementptr inbounds %struct.anon, %struct.anon* %35, i32 0, i32 1
  %37 = load i32, i32* %3, align 4
  %38 = sext i32 %37 to i64
  %39 = getelementptr inbounds [27 x i8], [27 x i8]* %36, i64 0, i64 %38
  %40 = load i8, i8* %39, align 1
  %41 = sext i8 %40 to i32
  %42 = icmp ne i32 %41, 0
  br i1 %42, label %43, label %61

43:                                               ; preds = %32
  %44 = load i32, i32* %2, align 4
  %45 = sext i32 %44 to i64
  %46 = getelementptr inbounds [1000 x %struct.anon], [1000 x %struct.anon]* @book, i64 0, i64 %45
  %47 = getelementptr inbounds %struct.anon, %struct.anon* %46, i32 0, i32 1
  %48 = load i32, i32* %3, align 4
  %49 = sext i32 %48 to i64
  %50 = getelementptr inbounds [27 x i8], [27 x i8]* %47, i64 0, i64 %49
  %51 = load i8, i8* %50, align 1
  %52 = sext i8 %51 to i32
  %53 = sub nsw i32 %52, 65
  %54 = sext i32 %53 to i64
  %55 = getelementptr inbounds [26 x i32], [26 x i32]* %5, i64 0, i64 %54
  %56 = load i32, i32* %55, align 4
  %57 = add nsw i32 %56, 1
  store i32 %57, i32* %55, align 4
  br label %58

58:                                               ; preds = %43
  %59 = load i32, i32* %3, align 4
  %60 = add nsw i32 %59, 1
  store i32 %60, i32* %3, align 4
  br label %32

61:                                               ; preds = %32
  br label %62

62:                                               ; preds = %61
  %63 = load i32, i32* %2, align 4
  %64 = add nsw i32 %63, 1
  store i32 %64, i32* %2, align 4
  br label %27

65:                                               ; preds = %27
  store i32 0, i32* %2, align 4
  br label %66

66:                                               ; preds = %85, %65
  %67 = load i32, i32* %2, align 4
  %68 = icmp slt i32 %67, 26
  br i1 %68, label %69, label %88

69:                                               ; preds = %66
  %70 = load i32, i32* %2, align 4
  %71 = sext i32 %70 to i64
  %72 = getelementptr inbounds [26 x i32], [26 x i32]* %5, i64 0, i64 %71
  %73 = load i32, i32* %72, align 4
  %74 = getelementptr inbounds [26 x i32], [26 x i32]* %5, i64 0, i64 0
  %75 = load i32, i32* %74, align 16
  %76 = icmp sgt i32 %73, %75
  br i1 %76, label %77, label %84

77:                                               ; preds = %69
  %78 = load i32, i32* %2, align 4
  %79 = sext i32 %78 to i64
  %80 = getelementptr inbounds [26 x i32], [26 x i32]* %5, i64 0, i64 %79
  %81 = load i32, i32* %80, align 4
  %82 = getelementptr inbounds [26 x i32], [26 x i32]* %5, i64 0, i64 0
  store i32 %81, i32* %82, align 16
  %83 = load i32, i32* %2, align 4
  store i32 %83, i32* %4, align 4
  br label %84

84:                                               ; preds = %77, %69
  br label %85

85:                                               ; preds = %84
  %86 = load i32, i32* %2, align 4
  %87 = add nsw i32 %86, 1
  store i32 %87, i32* %2, align 4
  br label %66

88:                                               ; preds = %66
  %89 = load i32, i32* %4, align 4
  %90 = add nsw i32 65, %89
  %91 = getelementptr inbounds [26 x i32], [26 x i32]* %5, i64 0, i64 0
  %92 = load i32, i32* %91, align 16
  %93 = call i32 (i8*, ...) @printf(i8* getelementptr inbounds ([7 x i8], [7 x i8]* @.str.2, i64 0, i64 0), i32 %90, i32 %92)
  store i32 0, i32* %2, align 4
  br label %94

94:                                               ; preds = %135, %88
  %95 = load i32, i32* %2, align 4
  %96 = load i32, i32* %1, align 4
  %97 = icmp slt i32 %95, %96
  br i1 %97, label %98, label %138

98:                                               ; preds = %94
  store i32 0, i32* %3, align 4
  br label %99

99:                                               ; preds = %131, %98
  %100 = load i32, i32* %2, align 4
  %101 = sext i32 %100 to i64
  %102 = getelementptr inbounds [1000 x %struct.anon], [1000 x %struct.anon]* @book, i64 0, i64 %101
  %103 = getelementptr inbounds %struct.anon, %struct.anon* %102, i32 0, i32 1
  %104 = load i32, i32* %3, align 4
  %105 = sext i32 %104 to i64
  %106 = getelementptr inbounds [27 x i8], [27 x i8]* %103, i64 0, i64 %105
  %107 = load i8, i8* %106, align 1
  %108 = sext i8 %107 to i32
  %109 = icmp ne i32 %108, 0
  br i1 %109, label %110, label %134

110:                                              ; preds = %99
  %111 = load i32, i32* %2, align 4
  %112 = sext i32 %111 to i64
  %113 = getelementptr inbounds [1000 x %struct.anon], [1000 x %struct.anon]* @book, i64 0, i64 %112
  %114 = getelementptr inbounds %struct.anon, %struct.anon* %113, i32 0, i32 1
  %115 = load i32, i32* %3, align 4
  %116 = sext i32 %115 to i64
  %117 = getelementptr inbounds [27 x i8], [27 x i8]* %114, i64 0, i64 %116
  %118 = load i8, i8* %117, align 1
  %119 = sext i8 %118 to i32
  %120 = load i32, i32* %4, align 4
  %121 = add nsw i32 65, %120
  %122 = icmp eq i32 %119, %121
  br i1 %122, label %123, label %130

123:                                              ; preds = %110
  %124 = load i32, i32* %2, align 4
  %125 = sext i32 %124 to i64
  %126 = getelementptr inbounds [1000 x %struct.anon], [1000 x %struct.anon]* @book, i64 0, i64 %125
  %127 = getelementptr inbounds %struct.anon, %struct.anon* %126, i32 0, i32 0
  %128 = load i32, i32* %127, align 16
  %129 = call i32 (i8*, ...) @printf(i8* getelementptr inbounds ([4 x i8], [4 x i8]* @.str.3, i64 0, i64 0), i32 %128)
  br label %134

130:                                              ; preds = %110
  br label %131

131:                                              ; preds = %130
  %132 = load i32, i32* %3, align 4
  %133 = add nsw i32 %132, 1
  store i32 %133, i32* %3, align 4
  br label %99

134:                                              ; preds = %123, %99
  br label %135

135:                                              ; preds = %134
  %136 = load i32, i32* %2, align 4
  %137 = add nsw i32 %136, 1
  store i32 %137, i32* %2, align 4
  br label %94

138:                                              ; preds = %94
  ret void
}